target datalayout = "e-m:e-p270:32:32-p271:32:32-p272:64:64-i64:64-i128:128-f80:128-n8:16:32:64-S128"
target triple = "x86_64-pc-linux-gnu"

%class.InstructionAttr = type { i8, i8, i8, i8, i8, i8, i8, i8, i32, i32, i32, i32, i32, ptr }

@_ZN19Abstract_VM_Version9_featuresE = external global i64, align 8

; Function Attrs: mustprogress nounwind uwtable
define linkonce_odr hidden noundef zeroext i1 @_ZN10VM_Version13supports_evexEv() #1 comdat align 2 {
  %1 = load i64, ptr @_ZN19Abstract_VM_Version9_featuresE, align 8
  %2 = and i64 %1, 134217728
  %3 = icmp ne i64 %2, 0
  ret i1 %3
}

; Function Attrs: mustprogress nounwind uwtable
define hidden void @_ZN15InstructionAttr22set_address_attributesEii(ptr noundef nonnull align 8 dereferenceable(40) %0, i32 noundef %1, i32 noundef %2) #1 align 2 {
  %4 = alloca ptr, align 8
  %5 = alloca i32, align 4
  %6 = alloca i32, align 4
  store ptr %0, ptr %4, align 8
  store i32 %1, ptr %5, align 4
  store i32 %2, ptr %6, align 4
  %7 = load ptr, ptr %4, align 8
  %8 = call noundef zeroext i1 @_ZN10VM_Version13supports_evexEv()
  br i1 %8, label %9, label %14

9:                                                ; preds = %3
  %10 = load i32, ptr %5, align 4
  %11 = getelementptr inbounds %class.InstructionAttr, ptr %7, i32 0, i32 9
  store i32 %10, ptr %11, align 4
  %12 = load i32, ptr %6, align 4
  %13 = getelementptr inbounds %class.InstructionAttr, ptr %7, i32 0, i32 10
  store i32 %12, ptr %13, align 8
  br label %14

14:                                               ; preds = %9, %3
  ret void
}