; Function Attrs: mustprogress nofree norecurse nosync nounwind willreturn memory(read, argmem: write, inaccessiblemem: none) uwtable
define hidden void @_ZN15InstructionAttr22set_address_attributesEii(ptr nocapture noundef nonnull writeonly align 8 dereferenceable(40) %0, i32 noundef %1, i32 noundef %2) local_unnamed_addr #6 align 2 {
  %4 = load i64, ptr @_ZN19Abstract_VM_Version9_featuresE, align 8
  %5 = and i64 %4, 134217728
  %.not = icmp eq i64 %5, 0
  br i1 %.not, label %9, label %6

6:                                                ; preds = %3
  %7 = getelementptr inbounds i8, ptr %0, i64 12
  store i32 %1, ptr %7, align 4
  %8 = getelementptr inbounds i8, ptr %0, i64 16
  store i32 %2, ptr %8, align 8
  br label %9

9:                                                ; preds = %6, %3
  ret void
}